	.file	"Passing_Array_To_Function.cpp"
	.text
	.section .rdata,"dr"
.LC0:
	.ascii " \0"
	.text
	.globl	_Z7passArrPii
	.def	_Z7passArrPii;	.scl	2;	.type	32;	.endef
	.seh_proc	_Z7passArrPii
_Z7passArrPii:
.LFB10571:
	pushq	%rbp
	.seh_pushreg	%rbp
	movq	%rsp, %rbp
	.seh_setframe	%rbp, 0
	subq	$48, %rsp
	.seh_stackalloc	48
	.seh_endprologue
	movq	%rcx, 16(%rbp)
	movl	%edx, 24(%rbp)
	movw	$0, -2(%rbp)
	jmp	.L2
.L3:
	movswq	-2(%rbp), %rax
	leaq	0(,%rax,4), %rdx
	movq	16(%rbp), %rax
	addq	%rdx, %rax
	movl	(%rax), %eax
	movl	%eax, %edx
	movq	.refptr._ZSt4cout(%rip), %rax
	movq	%rax, %rcx
	call	_ZNSolsEi
	movq	%rax, %rcx
	leaq	.LC0(%rip), %rax
	movq	%rax, %rdx
	call	_ZStlsISt11char_traitsIcEERSt13basic_ostreamIcT_ES5_PKc
	movzwl	-2(%rbp), %eax
	addl	$1, %eax
	movw	%ax, -2(%rbp)
.L2:
	movswl	-2(%rbp), %eax
	cmpl	%eax, 24(%rbp)
	jg	.L3
	movq	.refptr._ZSt4endlIcSt11char_traitsIcEERSt13basic_ostreamIT_T0_ES6_(%rip), %rax
	movq	%rax, %rdx
	movq	.refptr._ZSt4cout(%rip), %rax
	movq	%rax, %rcx
	call	_ZNSolsEPFRSoS_E
	nop
	addq	$48, %rsp
	popq	%rbp
	ret
	.seh_endproc
	.globl	_Z13changeElementPi
	.def	_Z13changeElementPi;	.scl	2;	.type	32;	.endef
	.seh_proc	_Z13changeElementPi
_Z13changeElementPi:
.LFB10572:
	pushq	%rbp
	.seh_pushreg	%rbp
	movq	%rsp, %rbp
	.seh_setframe	%rbp, 0
	subq	$32, %rsp
	.seh_stackalloc	32
	.seh_endprologue
	movq	%rcx, 16(%rbp)
	movq	16(%rbp), %rax
	addq	$12, %rax
	movl	$5, (%rax)
	movq	.refptr._ZSt4endlIcSt11char_traitsIcEERSt13basic_ostreamIT_T0_ES6_(%rip), %rax
	movq	%rax, %rdx
	movq	.refptr._ZSt4cout(%rip), %rax
	movq	%rax, %rcx
	call	_ZNSolsEPFRSoS_E
	nop
	addq	$32, %rsp
	popq	%rbp
	ret
	.seh_endproc
	.section .rdata,"dr"
.LC1:
	.ascii "arr: \0"
.LC2:
	.ascii " and &arr: \0"
.LC3:
	.ascii " and &arr[0]: \0"
	.text
	.globl	main
	.def	main;	.scl	2;	.type	32;	.endef
	.seh_proc	main
main:
.LFB10573:
	pushq	%rbp
	.seh_pushreg	%rbp
	movq	%rsp, %rbp
	.seh_setframe	%rbp, 0
	subq	$80, %rsp
	.seh_stackalloc	80
	.seh_endprologue
	call	__main
	movl	$2, -48(%rbp)
	movl	$5, -44(%rbp)
	movl	$8, -40(%rbp)
	movl	$0, -36(%rbp)
	movl	$1, -32(%rbp)
	movl	$1, -28(%rbp)
	movl	$8, -24(%rbp)
	movl	$9, -20(%rbp)
	movl	$1, -16(%rbp)
	movl	$4, -12(%rbp)
	movl	$10, -4(%rbp)
	leaq	.LC1(%rip), %rax
	movq	%rax, %rdx
	movq	.refptr._ZSt4cout(%rip), %rax
	movq	%rax, %rcx
	call	_ZStlsISt11char_traitsIcEERSt13basic_ostreamIcT_ES5_PKc
	movq	%rax, %rcx
	leaq	-48(%rbp), %rax
	movq	%rax, %rdx
	call	_ZNSolsEPKv
	movq	%rax, %rcx
	leaq	.LC2(%rip), %rax
	movq	%rax, %rdx
	call	_ZStlsISt11char_traitsIcEERSt13basic_ostreamIcT_ES5_PKc
	movq	%rax, %rcx
	leaq	-48(%rbp), %rax
	movq	%rax, %rdx
	call	_ZNSolsEPKv
	movq	%rax, %rcx
	leaq	.LC3(%rip), %rax
	movq	%rax, %rdx
	call	_ZStlsISt11char_traitsIcEERSt13basic_ostreamIcT_ES5_PKc
	movq	%rax, %rcx
	leaq	-48(%rbp), %rax
	movq	%rax, %rdx
	call	_ZNSolsEPKv
	movq	%rax, %rcx
	movq	.refptr._ZSt4endlIcSt11char_traitsIcEERSt13basic_ostreamIT_T0_ES6_(%rip), %rax
	movq	%rax, %rdx
	call	_ZNSolsEPFRSoS_E
	movq	%rax, %rcx
	movq	.refptr._ZSt4endlIcSt11char_traitsIcEERSt13basic_ostreamIT_T0_ES6_(%rip), %rax
	movq	%rax, %rdx
	call	_ZNSolsEPFRSoS_E
	movl	-4(%rbp), %edx
	leaq	-48(%rbp), %rax
	movq	%rax, %rcx
	call	_Z7passArrPii
	leaq	-48(%rbp), %rax
	movq	%rax, %rcx
	call	_Z13changeElementPi
	movl	-4(%rbp), %edx
	leaq	-48(%rbp), %rax
	movq	%rax, %rcx
	call	_Z7passArrPii
	movl	$0, %eax
	addq	$80, %rsp
	popq	%rbp
	ret
	.seh_endproc
	.section .rdata,"dr"
_ZNSt8__detail30__integer_to_chars_is_unsignedIjEE:
	.byte	1
_ZNSt8__detail30__integer_to_chars_is_unsignedImEE:
	.byte	1
_ZNSt8__detail30__integer_to_chars_is_unsignedIyEE:
	.byte	1
_ZSt12__is_ratio_vISt5ratioILx1ELx1000000000EEE:
	.byte	1
_ZSt12__is_ratio_vISt5ratioILx1ELx1EEE:
	.byte	1
_ZSt12__is_ratio_vISt5ratioILx1000000000ELx1EEE:
	.byte	1
_ZNSt8__detail30__integer_to_chars_is_unsignedIoEE:
	.byte	1
	.def	__main;	.scl	2;	.type	32;	.endef
	.ident	"GCC: (Rev2, Built by MSYS2 project) 14.2.0"
	.def	_ZNSolsEi;	.scl	2;	.type	32;	.endef
	.def	_ZStlsISt11char_traitsIcEERSt13basic_ostreamIcT_ES5_PKc;	.scl	2;	.type	32;	.endef
	.def	_ZNSolsEPFRSoS_E;	.scl	2;	.type	32;	.endef
	.def	_ZNSolsEPKv;	.scl	2;	.type	32;	.endef
	.section	.rdata$.refptr._ZSt4endlIcSt11char_traitsIcEERSt13basic_ostreamIT_T0_ES6_, "dr"
	.globl	.refptr._ZSt4endlIcSt11char_traitsIcEERSt13basic_ostreamIT_T0_ES6_
	.linkonce	discard
.refptr._ZSt4endlIcSt11char_traitsIcEERSt13basic_ostreamIT_T0_ES6_:
	.quad	_ZSt4endlIcSt11char_traitsIcEERSt13basic_ostreamIT_T0_ES6_
	.section	.rdata$.refptr._ZSt4cout, "dr"
	.globl	.refptr._ZSt4cout
	.linkonce	discard
.refptr._ZSt4cout:
	.quad	_ZSt4cout
